target datalayout = "e-m:e-p270:32:32-p271:32:32-p272:64:64-i64:64-i128:128-f80:128-n8:16:32:64-S128"
target triple = "x86_64-pc-linux-gnu"

%struct._exr_decode_pipeline = type { i64, ptr, i16, i16, i32, ptr, %struct.exr_chunk_info_t, i32, i32, i64, ptr, ptr, i64, ptr, i64, ptr, i64, ptr, i64, ptr, i64, ptr, i64, ptr, ptr, ptr, ptr, ptr, ptr, [5 x %struct.exr_coding_channel_info_t] }
%struct.exr_chunk_info_t = type { i32, i32, i32, i32, i32, i8, i8, i8, i8, i64, i64, i64, i64, i64 }
%struct.exr_coding_channel_info_t = type { ptr, i32, i32, i32, i32, i8, i8, i16, i16, i16, i32, i32, %union.anon }
%union.anon = type { ptr }

; Function Attrs: nounwind uwtable
define internal i32 @unpack_32bit(ptr noundef %0) #0 {
  %2 = alloca ptr, align 8
  %3 = alloca ptr, align 8
  %4 = alloca ptr, align 8
  %5 = alloca i64, align 8
  %6 = alloca i64, align 8
  %7 = alloca i64, align 8
  %8 = alloca i32, align 4
  %9 = alloca i32, align 4
  %10 = alloca ptr, align 8
  %11 = alloca i64, align 8
  %12 = alloca i32, align 4
  %13 = alloca i32, align 4
  %14 = alloca ptr, align 8
  %15 = alloca ptr, align 8
  %16 = alloca i64, align 8
  store ptr %0, ptr %2, align 8, !tbaa !3
  call void @llvm.lifetime.start.p0(i64 8, ptr %3) #6
  %17 = load ptr, ptr %2, align 8, !tbaa !3
  %18 = getelementptr inbounds nuw %struct._exr_decode_pipeline, ptr %17, i32 0, i32 13
  %19 = load ptr, ptr %18, align 8, !tbaa !19
  store ptr %19, ptr %3, align 8, !tbaa !20
  call void @llvm.lifetime.start.p0(i64 8, ptr %4) #6
  call void @llvm.lifetime.start.p0(i64 8, ptr %5) #6
  call void @llvm.lifetime.start.p0(i64 8, ptr %6) #6
  call void @llvm.lifetime.start.p0(i64 8, ptr %7) #6
  call void @llvm.lifetime.start.p0(i64 4, ptr %8) #6
  %20 = load ptr, ptr %2, align 8, !tbaa !3
  %21 = getelementptr inbounds nuw %struct._exr_decode_pipeline, ptr %20, i32 0, i32 2
  %22 = load i16, ptr %21, align 8, !tbaa !18
  %23 = sext i16 %22 to i32
  store i32 %23, ptr %8, align 4, !tbaa !8
  %24 = load ptr, ptr %2, align 8, !tbaa !3
  %25 = getelementptr inbounds nuw %struct._exr_decode_pipeline, ptr %24, i32 0, i32 6
  %26 = getelementptr inbounds nuw %struct.exr_chunk_info_t, ptr %25, i32 0, i32 3
  %27 = load i32, ptr %26, align 4, !tbaa !25
  %28 = sext i32 %27 to i64
  %29 = load ptr, ptr %2, align 8, !tbaa !3
  %30 = getelementptr inbounds nuw %struct._exr_decode_pipeline, ptr %29, i32 0, i32 8
  %31 = load i32, ptr %30, align 4, !tbaa !26
  %32 = sext i32 %31 to i64
  %33 = sub nsw i64 %28, %32
  store i64 %33, ptr %6, align 8, !tbaa !39
  call void @llvm.lifetime.start.p0(i64 4, ptr %9) #6
  store i32 0, ptr %9, align 4, !tbaa !8
  br label %34

34:                                               ; preds = %60, %1
  %35 = load i32, ptr %9, align 4, !tbaa !8
  %36 = load ptr, ptr %2, align 8, !tbaa !3
  %37 = getelementptr inbounds nuw %struct._exr_decode_pipeline, ptr %36, i32 0, i32 2
  %38 = load i16, ptr %37, align 8, !tbaa !18
  %39 = sext i16 %38 to i32
  %40 = icmp slt i32 %35, %39
  br i1 %40, label %42, label %41

41:                                               ; preds = %34
  call void @llvm.lifetime.end.p0(i64 4, ptr %9) #6
  br label %63

42:                                               ; preds = %34
  call void @llvm.lifetime.start.p0(i64 8, ptr %10) #6
  %43 = load ptr, ptr %2, align 8, !tbaa !3
  %44 = getelementptr inbounds nuw %struct._exr_decode_pipeline, ptr %43, i32 0, i32 1
  %45 = load ptr, ptr %44, align 8, !tbaa !28
  %46 = load i32, ptr %9, align 4, !tbaa !8
  %47 = sext i32 %46 to i64
  %48 = getelementptr inbounds %struct.exr_coding_channel_info_t, ptr %45, i64 %47
  store ptr %48, ptr %10, align 8, !tbaa !29
  %49 = load ptr, ptr %10, align 8, !tbaa !29
  %50 = getelementptr inbounds nuw %struct.exr_coding_channel_info_t, ptr %49, i32 0, i32 2
  %51 = load i32, ptr %50, align 4, !tbaa !72
  %52 = load ptr, ptr %2, align 8, !tbaa !3
  %53 = getelementptr inbounds nuw %struct._exr_decode_pipeline, ptr %52, i32 0, i32 7
  %54 = load i32, ptr %53, align 8, !tbaa !27
  %55 = mul nsw i32 %51, %54
  %56 = mul nsw i32 %55, 4
  %57 = load ptr, ptr %3, align 8, !tbaa !20
  %58 = sext i32 %56 to i64
  %59 = getelementptr inbounds i8, ptr %57, i64 %58
  store ptr %59, ptr %3, align 8, !tbaa !20
  call void @llvm.lifetime.end.p0(i64 8, ptr %10) #6
  br label %60

60:                                               ; preds = %42
  %61 = load i32, ptr %9, align 4, !tbaa !8
  %62 = add nsw i32 %61, 1
  store i32 %62, ptr %9, align 4, !tbaa !8
  br label %34, !llvm.loop !123

63:                                               ; preds = %41
  %64 = load ptr, ptr %2, align 8, !tbaa !3
  %65 = getelementptr inbounds nuw %struct._exr_decode_pipeline, ptr %64, i32 0, i32 7
  %66 = load i32, ptr %65, align 8, !tbaa !27
  %67 = sext i32 %66 to i64
  %68 = load i64, ptr %6, align 8, !tbaa !39
  %69 = sub nsw i64 %68, %67
  store i64 %69, ptr %6, align 8, !tbaa !39
  call void @llvm.lifetime.start.p0(i64 8, ptr %11) #6
  store i64 0, ptr %11, align 8, !tbaa !39
  br label %70

70:                                               ; preds = %142, %63
  %71 = load i64, ptr %11, align 8, !tbaa !39
  %72 = load i64, ptr %6, align 8, !tbaa !39
  %73 = icmp slt i64 %71, %72
  br i1 %73, label %75, label %74

74:                                               ; preds = %70
  store i32 5, ptr %12, align 4
  call void @llvm.lifetime.end.p0(i64 8, ptr %11) #6
  br label %145

75:                                               ; preds = %70
  call void @llvm.lifetime.start.p0(i64 4, ptr %13) #6
  store i32 0, ptr %13, align 4, !tbaa !8
  br label %76

76:                                               ; preds = %138, %75
  %77 = load i32, ptr %13, align 4, !tbaa !8
  %78 = load i32, ptr %8, align 4, !tbaa !8
  %79 = icmp slt i32 %77, %78
  br i1 %79, label %81, label %80

80:                                               ; preds = %76
  store i32 8, ptr %12, align 4
  call void @llvm.lifetime.end.p0(i64 4, ptr %13) #6
  br label %141

81:                                               ; preds = %76
  call void @llvm.lifetime.start.p0(i64 8, ptr %14) #6
  %82 = load ptr, ptr %2, align 8, !tbaa !3
  %83 = getelementptr inbounds nuw %struct._exr_decode_pipeline, ptr %82, i32 0, i32 1
  %84 = load ptr, ptr %83, align 8, !tbaa !28
  %85 = load i32, ptr %13, align 4, !tbaa !8
  %86 = sext i32 %85 to i64
  %87 = getelementptr inbounds %struct.exr_coding_channel_info_t, ptr %84, i64 %86
  store ptr %87, ptr %14, align 8, !tbaa !29
  %88 = load ptr, ptr %14, align 8, !tbaa !29
  %89 = getelementptr inbounds nuw %struct.exr_coding_channel_info_t, ptr %88, i32 0, i32 12
  %90 = load ptr, ptr %89, align 8, !tbaa !10
  store ptr %90, ptr %4, align 8, !tbaa !20
  %91 = load ptr, ptr %14, align 8, !tbaa !29
  %92 = getelementptr inbounds nuw %struct.exr_coding_channel_info_t, ptr %91, i32 0, i32 2
  %93 = load i32, ptr %92, align 4, !tbaa !72
  %94 = sext i32 %93 to i64
  store i64 %94, ptr %5, align 8, !tbaa !39
  %95 = load ptr, ptr %14, align 8, !tbaa !29
  %96 = getelementptr inbounds nuw %struct.exr_coding_channel_info_t, ptr %95, i32 0, i32 10
  %97 = load i32, ptr %96, align 8, !tbaa !38
  %98 = sext i32 %97 to i64
  store i64 %98, ptr %7, align 8, !tbaa !39
  %99 = load i64, ptr %11, align 8, !tbaa !39
  %100 = load ptr, ptr %14, align 8, !tbaa !29
  %101 = getelementptr inbounds nuw %struct.exr_coding_channel_info_t, ptr %100, i32 0, i32 11
  %102 = load i32, ptr %101, align 4, !tbaa !37
  %103 = sext i32 %102 to i64
  %104 = mul nsw i64 %99, %103
  %105 = load ptr, ptr %4, align 8, !tbaa !20
  %106 = getelementptr inbounds i8, ptr %105, i64 %104
  store ptr %106, ptr %4, align 8, !tbaa !20
  %107 = load i64, ptr %7, align 8, !tbaa !39
  %108 = icmp eq i64 %107, 4
  br i1 %108, label %109, label %114

109:                                              ; preds = %81
  %110 = load ptr, ptr %4, align 8, !tbaa !20
  %111 = load ptr, ptr %3, align 8, !tbaa !20
  %112 = load i64, ptr %5, align 8, !tbaa !39
  %113 = mul i64 %112, 4
  call void @llvm.memcpy.p0.p0.i64(ptr align 1 %110, ptr align 1 %111, i64 %113, i1 false)
  br label %133

114:                                              ; preds = %81
  call void @llvm.lifetime.start.p0(i64 8, ptr %15) #6
  %115 = load ptr, ptr %3, align 8, !tbaa !20
  store ptr %115, ptr %15, align 8, !tbaa !23
  call void @llvm.lifetime.start.p0(i64 8, ptr %16) #6
  store i64 0, ptr %16, align 8, !tbaa !39
  br label %116

116:                                              ; preds = %129, %114
  %117 = load i64, ptr %16, align 8, !tbaa !39
  %118 = load i64, ptr %5, align 8, !tbaa !39
  %119 = icmp slt i64 %117, %118
  br i1 %119, label %121, label %120

120:                                              ; preds = %116
  store i32 11, ptr %12, align 4
  call void @llvm.lifetime.end.p0(i64 8, ptr %16) #6
  br label %132

121:                                              ; preds = %116
  %122 = load ptr, ptr %15, align 8, !tbaa !23
  %123 = getelementptr inbounds nuw i32, ptr %122, i32 1
  store ptr %123, ptr %15, align 8, !tbaa !23
  %124 = load i32, ptr %122, align 4, !tbaa !8
  %125 = load ptr, ptr %4, align 8, !tbaa !20
  store i32 %124, ptr %125, align 4, !tbaa !8
  %126 = load i64, ptr %7, align 8, !tbaa !39
  %127 = load ptr, ptr %4, align 8, !tbaa !20
  %128 = getelementptr inbounds i8, ptr %127, i64 %126
  store ptr %128, ptr %4, align 8, !tbaa !20
  br label %129

129:                                              ; preds = %121
  %130 = load i64, ptr %16, align 8, !tbaa !39
  %131 = add nsw i64 %130, 1
  store i64 %131, ptr %16, align 8, !tbaa !39
  br label %116, !llvm.loop !124

132:                                              ; preds = %120
  call void @llvm.lifetime.end.p0(i64 8, ptr %15) #6
  br label %133

133:                                              ; preds = %132, %109
  %134 = load i64, ptr %5, align 8, !tbaa !39
  %135 = mul nsw i64 %134, 4
  %136 = load ptr, ptr %3, align 8, !tbaa !20
  %137 = getelementptr inbounds i8, ptr %136, i64 %135
  store ptr %137, ptr %3, align 8, !tbaa !20
  call void @llvm.lifetime.end.p0(i64 8, ptr %14) #6
  br label %138

138:                                              ; preds = %133
  %139 = load i32, ptr %13, align 4, !tbaa !8
  %140 = add nsw i32 %139, 1
  store i32 %140, ptr %13, align 4, !tbaa !8
  br label %76, !llvm.loop !125

141:                                              ; preds = %80
  br label %142

142:                                              ; preds = %141
  %143 = load i64, ptr %11, align 8, !tbaa !39
  %144 = add nsw i64 %143, 1
  store i64 %144, ptr %11, align 8, !tbaa !39
  br label %70, !llvm.loop !126

145:                                              ; preds = %74
  store i32 1, ptr %12, align 4
  call void @llvm.lifetime.end.p0(i64 4, ptr %8) #6
  call void @llvm.lifetime.end.p0(i64 8, ptr %7) #6
  call void @llvm.lifetime.end.p0(i64 8, ptr %6) #6
  call void @llvm.lifetime.end.p0(i64 8, ptr %5) #6
  call void @llvm.lifetime.end.p0(i64 8, ptr %4) #6
  call void @llvm.lifetime.end.p0(i64 8, ptr %3) #6
  ret i32 0
}