; Function Attrs: nofree norecurse nosync nounwind memory(readwrite, inaccessiblemem: none) uwtable
define internal noundef i32 @unpack_32bit(ptr noundef readonly captures(none) %0) #1 {
  %2 = getelementptr inbounds nuw i8, ptr %0, i64 16
  %3 = load i16, ptr %2, align 8, !tbaa !15
  %4 = sext i16 %3 to i32
  %5 = getelementptr inbounds nuw i8, ptr %0, i64 44
  %6 = load i32, ptr %5, align 4, !tbaa !16
  %7 = sext i32 %6 to i64
  %8 = getelementptr inbounds nuw i8, ptr %0, i64 100
  %9 = load i32, ptr %8, align 4, !tbaa !17
  %10 = sext i32 %9 to i64
  %11 = icmp sgt i16 %3, 0
  br i1 %11, label %.lr.ph, label %._crit_edge65

.lr.ph:                                           ; preds = %1
  %12 = getelementptr inbounds nuw i8, ptr %0, i64 136
  %13 = load ptr, ptr %12, align 8, !tbaa !21
  %14 = getelementptr inbounds nuw i8, ptr %0, i64 8
  %15 = load ptr, ptr %14, align 8, !tbaa !22
  %16 = getelementptr inbounds nuw i8, ptr %0, i64 96
  %17 = load i32, ptr %16, align 8, !tbaa !19
  %factor.op.mul = shl i32 %17, 2
  %wide.trip.count = zext nneg i32 %4 to i64
  br label %50

._crit_edge:                                      ; preds = %50
  %18 = sext i32 %17 to i64
  %19 = add nsw i64 %10, %18
  %20 = sub nsw i64 %7, %19
  %21 = icmp sgt i64 %20, 0
  br i1 %21, label %.preheader50.lr.ph, label %._crit_edge65

.preheader50.lr.ph:                               ; preds = %._crit_edge
  %22 = getelementptr inbounds nuw i8, ptr %0, i64 8
  %wide.trip.count73 = zext nneg i32 %4 to i64
  br label %.preheader50.us

.preheader50.us:                                  ; preds = %.preheader50.lr.ph, %._crit_edge61.us
  %.164.us = phi ptr [ %47, %._crit_edge61.us ], [ %54, %.preheader50.lr.ph ]
  %.04463.us = phi i64 [ %49, %._crit_edge61.us ], [ 0, %.preheader50.lr.ph ]
  br label %23

23:                                               ; preds = %.preheader50.us, %.loopexit.us
  %indvars.iv70 = phi i64 [ 0, %.preheader50.us ], [ %indvars.iv.next71, %.loopexit.us ]
  %.258.us = phi ptr [ %.164.us, %.preheader50.us ], [ %47, %.loopexit.us ]
  %24 = load ptr, ptr %22, align 8, !tbaa !22
  %25 = getelementptr inbounds nuw %struct.exr_coding_channel_info_t, ptr %24, i64 %indvars.iv70
  %26 = getelementptr inbounds nuw i8, ptr %25, i64 40
  %27 = load ptr, ptr %26, align 8, !tbaa !3
  %28 = getelementptr inbounds nuw i8, ptr %25, i64 12
  %29 = load i32, ptr %28, align 4, !tbaa !65
  %30 = sext i32 %29 to i64
  %31 = getelementptr inbounds nuw i8, ptr %25, i64 32
  %32 = load i32, ptr %31, align 8, !tbaa !31
  %33 = sext i32 %32 to i64
  %34 = getelementptr inbounds nuw i8, ptr %25, i64 36
  %35 = load i32, ptr %34, align 4, !tbaa !32
  %36 = sext i32 %35 to i64
  %37 = mul nsw i64 %.04463.us, %36
  %38 = getelementptr inbounds i8, ptr %27, i64 %37
  %39 = icmp eq i32 %32, 4
  br i1 %39, label %44, label %.preheader.us

.lr.ph56.us:                                      ; preds = %.preheader.us, %.lr.ph56.us
  %.055.us = phi i64 [ %43, %.lr.ph56.us ], [ 0, %.preheader.us ]
  %.04154.us = phi ptr [ %40, %.lr.ph56.us ], [ %.258.us, %.preheader.us ]
  %.04553.us = phi ptr [ %42, %.lr.ph56.us ], [ %38, %.preheader.us ]
  %40 = getelementptr inbounds nuw i8, ptr %.04154.us, i64 4
  %41 = load i32, ptr %.04154.us, align 4, !tbaa !23
  store i32 %41, ptr %.04553.us, align 4, !tbaa !23
  %42 = getelementptr inbounds i8, ptr %.04553.us, i64 %33
  %43 = add nuw nsw i64 %.055.us, 1
  %exitcond69.not = icmp eq i64 %43, %30
  br i1 %exitcond69.not, label %.loopexit.us, label %.lr.ph56.us, !llvm.loop !113

44:                                               ; preds = %23
  %45 = shl nsw i64 %30, 2
  tail call void @llvm.memcpy.p0.p0.i64(ptr align 1 %38, ptr align 1 %.258.us, i64 %45, i1 false)
  br label %.loopexit.us

.loopexit.us:                                     ; preds = %.lr.ph56.us, %.preheader.us, %44
  %46 = shl nsw i64 %30, 2
  %47 = getelementptr inbounds i8, ptr %.258.us, i64 %46
  %indvars.iv.next71 = add nuw nsw i64 %indvars.iv70, 1
  %exitcond74.not = icmp eq i64 %indvars.iv.next71, %wide.trip.count73
  br i1 %exitcond74.not, label %._crit_edge61.us, label %23, !llvm.loop !114

.preheader.us:                                    ; preds = %23
  %48 = icmp sgt i32 %29, 0
  br i1 %48, label %.lr.ph56.us, label %.loopexit.us

._crit_edge61.us:                                 ; preds = %.loopexit.us
  %49 = add nuw nsw i64 %.04463.us, 1
  %exitcond75.not = icmp eq i64 %49, %20
  br i1 %exitcond75.not, label %._crit_edge65, label %.preheader50.us, !llvm.loop !115

50:                                               ; preds = %.lr.ph, %50
  %indvars.iv = phi i64 [ 0, %.lr.ph ], [ %indvars.iv.next, %50 ]
  %.04252 = phi ptr [ %13, %.lr.ph ], [ %54, %50 ]
  %51 = getelementptr inbounds nuw %struct.exr_coding_channel_info_t, ptr %15, i64 %indvars.iv, i32 2
  %52 = load i32, ptr %51, align 4, !tbaa !65
  %.reass = mul i32 %52, %factor.op.mul
  %53 = sext i32 %.reass to i64
  %54 = getelementptr inbounds i8, ptr %.04252, i64 %53
  %indvars.iv.next = add nuw nsw i64 %indvars.iv, 1
  %exitcond.not = icmp eq i64 %indvars.iv.next, %wide.trip.count
  br i1 %exitcond.not, label %._crit_edge, label %50, !llvm.loop !116

._crit_edge65:                                    ; preds = %._crit_edge61.us, %1, %._crit_edge
  ret i32 0
}